target datalayout = "e-m:e-p270:32:32-p271:32:32-p272:64:64-i64:64-i128:128-f80:128-n8:16:32:64-S128"
target triple = "x86_64-pc-linux-gnu"

@configured_signing_key = internal global ptr null, align 8
@gpg_interface_lazy_init.done = internal global i32 0, align 4
@the_repository = external global ptr, align 8

; Function Attrs: inlinehint nounwind uwtable
define internal void @git_config(ptr noundef %0, ptr noundef %1) #4 {
  %3 = alloca ptr, align 8
  %4 = alloca ptr, align 8
  store ptr %0, ptr %3, align 8, !tbaa !54
  store ptr %1, ptr %4, align 8, !tbaa !54
  %5 = load ptr, ptr @the_repository, align 8, !tbaa !55
  %6 = load ptr, ptr %3, align 8, !tbaa !54
  %7 = load ptr, ptr %4, align 8, !tbaa !54
  call void @repo_config(ptr noundef %5, ptr noundef %6, ptr noundef %7)
  ret void
}

; Function Attrs: nounwind uwtable
define internal void @gpg_interface_lazy_init() #0 {
  %1 = load i32, ptr @gpg_interface_lazy_init.done, align 4, !tbaa !29
  %2 = icmp ne i32 %1, 0
  br i1 %2, label %3, label %4

3:                                                ; preds = %0
  br label %5

4:                                                ; preds = %0
  store i32 1, ptr @gpg_interface_lazy_init.done, align 4, !tbaa !29
  call void @git_config(ptr noundef @git_gpg_config, ptr noundef null)
  br label %5

5:                                                ; preds = %4, %3
  ret void
}

; Function Attrs: nounwind uwtable
define dso_local void @set_signing_key(ptr noundef %0) #0 {
  %2 = alloca ptr, align 8
  store ptr %0, ptr %2, align 8, !tbaa !20
  call void @gpg_interface_lazy_init()
  %3 = load ptr, ptr @configured_signing_key, align 8, !tbaa !20
  call void @free(ptr noundef %3) #8
  %4 = load ptr, ptr %2, align 8, !tbaa !20
  %5 = call ptr @xstrdup(ptr noundef %4)
  store ptr %5, ptr @configured_signing_key, align 8, !tbaa !20
  ret void
}