; Function Attrs: nounwind uwtable
define dso_local void @set_signing_key(ptr noundef %0) local_unnamed_addr #2 {
  %.b.i = load i1, ptr @gpg_interface_lazy_init.done, align 4
  br i1 %.b.i, label %gpg_interface_lazy_init.exit, label %2

2:                                                ; preds = %1
  store i1 true, ptr @gpg_interface_lazy_init.done, align 4
  %3 = load ptr, ptr @the_repository, align 8, !tbaa !18
  tail call void @repo_config(ptr noundef %3, ptr noundef nonnull @git_gpg_config, ptr noundef null) #15
  br label %gpg_interface_lazy_init.exit

gpg_interface_lazy_init.exit:                     ; preds = %1, %2
  %4 = load ptr, ptr @configured_signing_key, align 8, !tbaa !25
  tail call void @free(ptr noundef %4) #15
  %5 = tail call ptr @xstrdup(ptr noundef %0) #15
  store ptr %5, ptr @configured_signing_key, align 8, !tbaa !25
  ret void
}